target datalayout = "e-m:e-p270:32:32-p271:32:32-p272:64:64-i64:64-i128:128-f80:128-n8:16:32:64-S128"
target triple = "x86_64-pc-linux-gnu"

%"class.std::function" = type { %"class.std::_Function_base", ptr }
%"class.std::_Function_base" = type { %"union.std::_Any_data", ptr }
%"union.std::_Any_data" = type { %"union.std::_Nocopy_types" }
%"union.std::_Nocopy_types" = type { { i64, i64 } }
%"class.std::function.0" = type { %"class.std::_Function_base", ptr }
%"class.std::function.4" = type { %"class.std::_Function_base", ptr }
%class.anon.11 = type { i8 }

; Function Attrs: mustprogress nounwind uwtable
define linkonce_odr dso_local noundef ptr @_ZNSt9_Any_data9_M_accessEv(ptr noundef nonnull align 8 dereferenceable(16) %0) #5 comdat align 2 {
  %2 = alloca ptr, align 8
  store ptr %0, ptr %2, align 8
  %3 = load ptr, ptr %2, align 8
  %4 = getelementptr inbounds [16 x i8], ptr %3, i64 0, i64 0
  ret ptr %4
}

; Function Attrs: mustprogress nounwind uwtable
define internal void @"_ZNSt14_Function_base13_Base_managerIZN10JsonErrors24INVALID_NAMED_OBJECT_KEYENS1_11ObjectErrorERKSt6vectorINSt7__cxx1112basic_stringIcSt11char_traitsIcESaIcEEESaIS9_EEE3$_0E9_M_createISE_EEvRSt9_Any_dataOT_St17integral_constantIbLb1EE"(ptr noundef nonnull align 8 dereferenceable(16) %0, ptr noundef nonnull align 1 dereferenceable(1) %1) #5 align 2 {
  %3 = alloca ptr, align 8
  %4 = alloca ptr, align 8
  store ptr %0, ptr %3, align 8
  store ptr %1, ptr %4, align 8
  %5 = load ptr, ptr %3, align 8
  %6 = call noundef ptr @_ZNSt9_Any_data9_M_accessEv(ptr noundef nonnull align 8 dereferenceable(16) %5) #3
  ret void
}

; Function Attrs: mustprogress nounwind uwtable
define linkonce_odr dso_local void @_ZNSt14_Function_baseD2Ev(ptr noundef nonnull align 8 dereferenceable(24) %0) unnamed_addr #5 comdat align 2 personality ptr @__gxx_personality_v0 {
  %2 = alloca ptr, align 8
  store ptr %0, ptr %2, align 8
  %3 = load ptr, ptr %2, align 8
  %4 = getelementptr inbounds %"class.std::_Function_base", ptr %3, i32 0, i32 1
  %5 = load ptr, ptr %4, align 8
  %6 = icmp ne ptr %5, null
  br i1 %6, label %7, label %14

7:                                                ; preds = %1
  %8 = getelementptr inbounds %"class.std::_Function_base", ptr %3, i32 0, i32 1
  %9 = load ptr, ptr %8, align 8
  %10 = getelementptr inbounds %"class.std::_Function_base", ptr %3, i32 0, i32 0
  %11 = getelementptr inbounds %"class.std::_Function_base", ptr %3, i32 0, i32 0
  %12 = invoke noundef zeroext i1 %9(ptr noundef nonnull align 8 dereferenceable(16) %10, ptr noundef nonnull align 8 dereferenceable(16) %11, i32 noundef 3)
          to label %13 unwind label %15

13:                                               ; preds = %7
  br label %14

14:                                               ; preds = %13, %1
  ret void

15:                                               ; preds = %7
  %16 = landingpad { ptr, i32 }
          catch ptr null
  %17 = extractvalue { ptr, i32 } %16, 0
  call void @__clang_call_terminate(ptr %17) #14
  unreachable
}

; Function Attrs: mustprogress nounwind uwtable
define linkonce_odr dso_local noundef zeroext i1 @_ZNKSt14_Function_base8_M_emptyEv(ptr noundef nonnull align 8 dereferenceable(24) %0) #5 comdat align 2 {
  %2 = alloca ptr, align 8
  store ptr %0, ptr %2, align 8
  %3 = load ptr, ptr %2, align 8
  %4 = getelementptr inbounds %"class.std::_Function_base", ptr %3, i32 0, i32 1
  %5 = load ptr, ptr %4, align 8
  %6 = icmp ne ptr %5, null
  %7 = xor i1 %6, true
  ret i1 %7
}

; Function Attrs: mustprogress nounwind uwtable
define internal void @"_ZNSt14_Function_base13_Base_managerIZN10JsonErrors24INVALID_NAMED_OBJECT_KEYENS1_11ObjectErrorERKSt6vectorINSt7__cxx1112basic_stringIcSt11char_traitsIcESaIcEEESaIS9_EEE3$_0E15_M_init_functorISE_EEvRSt9_Any_dataOT_"(ptr noundef nonnull align 8 dereferenceable(16) %0, ptr noundef nonnull align 1 dereferenceable(1) %1) #5 align 2 personality ptr @__gxx_personality_v0 {
  %3 = alloca ptr, align 8
  %4 = alloca ptr, align 8
  store ptr %0, ptr %3, align 8
  store ptr %1, ptr %4, align 8
  %5 = load ptr, ptr %3, align 8
  %6 = load ptr, ptr %4, align 8
  invoke void @"_ZNSt14_Function_base13_Base_managerIZN10JsonErrors24INVALID_NAMED_OBJECT_KEYENS1_11ObjectErrorERKSt6vectorINSt7__cxx1112basic_stringIcSt11char_traitsIcESaIcEEESaIS9_EEE3$_0E9_M_createISE_EEvRSt9_Any_dataOT_St17integral_constantIbLb1EE"(ptr noundef nonnull align 8 dereferenceable(16) %5, ptr noundef nonnull align 1 dereferenceable(1) %6)
          to label %7 unwind label %8

7:                                                ; preds = %2
  ret void

8:                                                ; preds = %2
  %9 = landingpad { ptr, i32 }
          catch ptr null
  %10 = extractvalue { ptr, i32 } %9, 0
  call void @__clang_call_terminate(ptr %10) #14
  unreachable
}

; Function Attrs: mustprogress nounwind uwtable
define internal noundef zeroext i1 @"_ZNSt14_Function_base13_Base_managerIZN10JsonErrors24INVALID_NAMED_OBJECT_KEYENS1_11ObjectErrorERKSt6vectorINSt7__cxx1112basic_stringIcSt11char_traitsIcESaIcEEESaIS9_EEE3$_0E21_M_not_empty_functionISE_EEbRKT_"(ptr noundef nonnull align 1 dereferenceable(1) %0) #5 align 2 {
  %2 = alloca ptr, align 8
  store ptr %0, ptr %2, align 8
  ret i1 true
}

; Function Attrs: mustprogress nounwind uwtable
define linkonce_odr dso_local void @_ZNSt14_Function_baseC2Ev(ptr noundef nonnull align 8 dereferenceable(24) %0) unnamed_addr #5 comdat align 2 {
  %2 = alloca ptr, align 8
  store ptr %0, ptr %2, align 8
  %3 = load ptr, ptr %2, align 8
  %4 = getelementptr inbounds %"class.std::_Function_base", ptr %3, i32 0, i32 0
  store ptr null, ptr %4, align 8
  %5 = getelementptr inbounds %"class.std::_Function_base", ptr %3, i32 0, i32 1
  store ptr null, ptr %5, align 8
  ret void
}

; Function Attrs: mustprogress nounwind uwtable
define linkonce_odr dso_local void @_ZNSt8functionIFNSt7__cxx1112basic_stringIcSt11char_traitsIcESaIcEEEPKN4Json5ValueEP11cmJSONStateEED2Ev(ptr noundef nonnull align 8 dereferenceable(32) %0) unnamed_addr #5 comdat align 2 {
  %2 = alloca ptr, align 8
  store ptr %0, ptr %2, align 8
  %3 = load ptr, ptr %2, align 8
  call void @_ZNSt14_Function_baseD2Ev(ptr noundef nonnull align 8 dereferenceable(24) %3) #3
  ret void
}

; Function Attrs: mustprogress nounwind uwtable
define linkonce_odr dso_local void @_ZNSt8functionIFS_IFvPKN4Json5ValueEP11cmJSONStateEEN10JsonErrors11ObjectErrorERKSt6vectorINSt7__cxx1112basic_stringIcSt11char_traitsIcESaIcEEESaISG_EEEED2Ev(ptr noundef nonnull align 8 dereferenceable(32) %0) unnamed_addr #5 comdat align 2 {
  %2 = alloca ptr, align 8
  store ptr %0, ptr %2, align 8
  %3 = load ptr, ptr %2, align 8
  call void @_ZNSt14_Function_baseD2Ev(ptr noundef nonnull align 8 dereferenceable(24) %3) #3
  ret void
}

; Function Attrs: mustprogress uwtable
define linkonce_odr dso_local void @_ZNKSt8functionIFS_IFvPKN4Json5ValueEP11cmJSONStateEEN10JsonErrors11ObjectErrorERKSt6vectorINSt7__cxx1112basic_stringIcSt11char_traitsIcESaIcEEESaISG_EEEEclES9_SK_(ptr dead_on_unwind noalias writable sret(%"class.std::function") align 8 %0, ptr noundef nonnull align 8 dereferenceable(32) %1, i32 noundef %2, ptr noundef nonnull align 8 dereferenceable(24) %3) #4 comdat align 2 {
  %5 = alloca ptr, align 8
  %6 = alloca ptr, align 8
  %7 = alloca i32, align 4
  %8 = alloca ptr, align 8
  store ptr %0, ptr %5, align 8
  store ptr %1, ptr %6, align 8
  store i32 %2, ptr %7, align 4
  store ptr %3, ptr %8, align 8
  %9 = load ptr, ptr %6, align 8
  %10 = call noundef zeroext i1 @_ZNKSt14_Function_base8_M_emptyEv(ptr noundef nonnull align 8 dereferenceable(24) %9)
  br i1 %10, label %11, label %12

11:                                               ; preds = %4
  call void @_ZSt25__throw_bad_function_callv() #13
  unreachable

12:                                               ; preds = %4
  %13 = getelementptr inbounds %"class.std::function.0", ptr %9, i32 0, i32 1
  %14 = load ptr, ptr %13, align 8
  %15 = getelementptr inbounds %"class.std::_Function_base", ptr %9, i32 0, i32 0
  %16 = load ptr, ptr %8, align 8
  call void %14(ptr dead_on_unwind writable sret(%"class.std::function") align 8 %0, ptr noundef nonnull align 8 dereferenceable(16) %15, ptr noundef nonnull align 4 dereferenceable(4) %7, ptr noundef nonnull align 8 dereferenceable(24) %16)
  ret void
}

; Function Attrs: mustprogress nounwind uwtable
define internal void @"_ZNSt8functionIFNSt7__cxx1112basic_stringIcSt11char_traitsIcESaIcEEEPKN4Json5ValueEP11cmJSONStateEEC2IZN10JsonErrors24INVALID_NAMED_OBJECT_KEYENSF_11ObjectErrorERKSt6vectorIS5_SaIS5_EEE3$_0vEEOT_"(ptr noundef nonnull align 8 dereferenceable(32) %0, ptr noundef nonnull align 1 dereferenceable(1) %1) unnamed_addr #5 align 2 {
  %3 = alloca ptr, align 8
  %4 = alloca ptr, align 8
  store ptr %0, ptr %3, align 8
  store ptr %1, ptr %4, align 8
  %5 = load ptr, ptr %3, align 8
  %6 = getelementptr inbounds i8, ptr %5, i64 0
  call void @llvm.memset.p0.i64(ptr align 8 %6, i8 0, i64 24, i1 false)
  call void @_ZNSt14_Function_baseC2Ev(ptr noundef nonnull align 8 dereferenceable(24) %5) #3
  %7 = getelementptr inbounds %"class.std::function.4", ptr %5, i32 0, i32 1
  store ptr null, ptr %7, align 8
  %8 = load ptr, ptr %4, align 8
  %9 = call noundef zeroext i1 @"_ZNSt14_Function_base13_Base_managerIZN10JsonErrors24INVALID_NAMED_OBJECT_KEYENS1_11ObjectErrorERKSt6vectorINSt7__cxx1112basic_stringIcSt11char_traitsIcESaIcEEESaIS9_EEE3$_0E21_M_not_empty_functionISE_EEbRKT_"(ptr noundef nonnull align 1 dereferenceable(1) %8) #3
  br i1 %9, label %10, label %15

10:                                               ; preds = %2
  %11 = getelementptr inbounds %"class.std::_Function_base", ptr %5, i32 0, i32 0
  %12 = load ptr, ptr %4, align 8
  call void @"_ZNSt14_Function_base13_Base_managerIZN10JsonErrors24INVALID_NAMED_OBJECT_KEYENS1_11ObjectErrorERKSt6vectorINSt7__cxx1112basic_stringIcSt11char_traitsIcESaIcEEESaIS9_EEE3$_0E15_M_init_functorISE_EEvRSt9_Any_dataOT_"(ptr noundef nonnull align 8 dereferenceable(16) %11, ptr noundef nonnull align 1 dereferenceable(1) %12) #3
  %13 = getelementptr inbounds %"class.std::function.4", ptr %5, i32 0, i32 1
  store ptr @"_ZNSt17_Function_handlerIFNSt7__cxx1112basic_stringIcSt11char_traitsIcESaIcEEEPKN4Json5ValueEP11cmJSONStateEZN10JsonErrors24INVALID_NAMED_OBJECT_KEYENSD_11ObjectErrorERKSt6vectorIS5_SaIS5_EEE3$_0E9_M_invokeERKSt9_Any_dataOS9_OSB_", ptr %13, align 8
  %14 = getelementptr inbounds %"class.std::_Function_base", ptr %5, i32 0, i32 1
  store ptr @"_ZNSt17_Function_handlerIFNSt7__cxx1112basic_stringIcSt11char_traitsIcESaIcEEEPKN4Json5ValueEP11cmJSONStateEZN10JsonErrors24INVALID_NAMED_OBJECT_KEYENSD_11ObjectErrorERKSt6vectorIS5_SaIS5_EEE3$_0E10_M_managerERSt9_Any_dataRKSM_St18_Manager_operation", ptr %14, align 8
  br label %15

15:                                               ; preds = %10, %2
  ret void
}

; Function Attrs: mustprogress uwtable
define dso_local void @_ZN10JsonErrors24INVALID_NAMED_OBJECT_KEYENS_11ObjectErrorERKSt6vectorINSt7__cxx1112basic_stringIcSt11char_traitsIcESaIcEEESaIS7_EE(ptr dead_on_unwind noalias writable sret(%"class.std::function") align 8 %0, i32 noundef %1, ptr noundef nonnull align 8 dereferenceable(24) %2) #4 personality ptr @__gxx_personality_v0 {
  %4 = alloca ptr, align 8
  %5 = alloca i32, align 4
  %6 = alloca ptr, align 8
  %7 = alloca %"class.std::function.0", align 8
  %8 = alloca %"class.std::function.4", align 8
  %9 = alloca %class.anon.11, align 1
  %10 = alloca ptr, align 8
  %11 = alloca i32, align 4
  store ptr %0, ptr %4, align 8
  store i32 %1, ptr %5, align 4
  store ptr %2, ptr %6, align 8
  call void @"_ZNSt8functionIFNSt7__cxx1112basic_stringIcSt11char_traitsIcESaIcEEEPKN4Json5ValueEP11cmJSONStateEEC2IZN10JsonErrors24INVALID_NAMED_OBJECT_KEYENSF_11ObjectErrorERKSt6vectorIS5_SaIS5_EEE3$_0vEEOT_"(ptr noundef nonnull align 8 dereferenceable(32) %8, ptr noundef nonnull align 1 dereferenceable(1) %9) #3
  invoke void @_ZN10JsonErrors20INVALID_NAMED_OBJECTERKSt8functionIFNSt7__cxx1112basic_stringIcSt11char_traitsIcESaIcEEEPKN4Json5ValueEP11cmJSONStateEE(ptr dead_on_unwind writable sret(%"class.std::function.0") align 8 %7, ptr noundef nonnull align 8 dereferenceable(32) %8)
          to label %12 unwind label %16

12:                                               ; preds = %3
  %13 = load i32, ptr %5, align 4
  %14 = load ptr, ptr %6, align 8
  invoke void @_ZNKSt8functionIFS_IFvPKN4Json5ValueEP11cmJSONStateEEN10JsonErrors11ObjectErrorERKSt6vectorINSt7__cxx1112basic_stringIcSt11char_traitsIcESaIcEEESaISG_EEEEclES9_SK_(ptr dead_on_unwind writable sret(%"class.std::function") align 8 %0, ptr noundef nonnull align 8 dereferenceable(32) %7, i32 noundef %13, ptr noundef nonnull align 8 dereferenceable(24) %14)
          to label %15 unwind label %20

15:                                               ; preds = %12
  call void @_ZNSt8functionIFS_IFvPKN4Json5ValueEP11cmJSONStateEEN10JsonErrors11ObjectErrorERKSt6vectorINSt7__cxx1112basic_stringIcSt11char_traitsIcESaIcEEESaISG_EEEED2Ev(ptr noundef nonnull align 8 dereferenceable(32) %7) #3
  call void @_ZNSt8functionIFNSt7__cxx1112basic_stringIcSt11char_traitsIcESaIcEEEPKN4Json5ValueEP11cmJSONStateEED2Ev(ptr noundef nonnull align 8 dereferenceable(32) %8) #3
  ret void

16:                                               ; preds = %3
  %17 = landingpad { ptr, i32 }
          cleanup
  %18 = extractvalue { ptr, i32 } %17, 0
  store ptr %18, ptr %10, align 8
  %19 = extractvalue { ptr, i32 } %17, 1
  store i32 %19, ptr %11, align 4
  br label %24

20:                                               ; preds = %12
  %21 = landingpad { ptr, i32 }
          cleanup
  %22 = extractvalue { ptr, i32 } %21, 0
  store ptr %22, ptr %10, align 8
  %23 = extractvalue { ptr, i32 } %21, 1
  store i32 %23, ptr %11, align 4
  call void @_ZNSt8functionIFS_IFvPKN4Json5ValueEP11cmJSONStateEEN10JsonErrors11ObjectErrorERKSt6vectorINSt7__cxx1112basic_stringIcSt11char_traitsIcESaIcEEESaISG_EEEED2Ev(ptr noundef nonnull align 8 dereferenceable(32) %7) #3
  br label %24

24:                                               ; preds = %20, %16
  call void @_ZNSt8functionIFNSt7__cxx1112basic_stringIcSt11char_traitsIcESaIcEEEPKN4Json5ValueEP11cmJSONStateEED2Ev(ptr noundef nonnull align 8 dereferenceable(32) %8) #3
  br label %25

25:                                               ; preds = %24
  %26 = load ptr, ptr %10, align 8
  %27 = load i32, ptr %11, align 4
  %28 = insertvalue { ptr, i32 } poison, ptr %26, 0
  %29 = insertvalue { ptr, i32 } %28, i32 %27, 1
  resume { ptr, i32 } %29
}